target datalayout = "e-m:e-p270:32:32-p271:32:32-p272:64:64-i64:64-i128:128-f80:128-n8:16:32:64-S128"
target triple = "x86_64-pc-linux-gnu"

%struct.OptionDef = type { ptr, i32, i32, %union.anon, ptr, ptr, %union.anon.0 }
%union.anon = type { ptr }
%union.anon.0 = type { ptr }

; Function Attrs: nounwind uwtable
define internal i32 @opt_has_arg(ptr noundef %0) #0 {
  %2 = alloca i32, align 4
  %3 = alloca ptr, align 8
  store ptr %0, ptr %3, align 8, !tbaa !21
  %4 = load ptr, ptr %3, align 8, !tbaa !21
  %5 = getelementptr inbounds nuw %struct.OptionDef, ptr %4, i32 0, i32 1
  %6 = load i32, ptr %5, align 8, !tbaa !36
  %7 = icmp eq i32 %6, 1
  br i1 %7, label %8, label %9

8:                                                ; preds = %1
  store i32 0, ptr %2, align 4
  br label %24

9:                                                ; preds = %1
  %10 = load ptr, ptr %3, align 8, !tbaa !21
  %11 = getelementptr inbounds nuw %struct.OptionDef, ptr %10, i32 0, i32 1
  %12 = load i32, ptr %11, align 8, !tbaa !36
  %13 = icmp eq i32 %12, 0
  br i1 %13, label %14, label %23

14:                                               ; preds = %9
  %15 = load ptr, ptr %3, align 8, !tbaa !21
  %16 = getelementptr inbounds nuw %struct.OptionDef, ptr %15, i32 0, i32 2
  %17 = load i32, ptr %16, align 4, !tbaa !25
  %18 = and i32 %17, 1
  %19 = icmp ne i32 %18, 0
  %20 = xor i1 %19, true
  %21 = xor i1 %20, true
  %22 = zext i1 %21 to i32
  store i32 %22, ptr %2, align 4
  br label %24

23:                                               ; preds = %9
  store i32 1, ptr %2, align 4
  br label %24

24:                                               ; preds = %23, %14, %8
  %25 = load i32, ptr %2, align 4
  ret i32 %25
}

; Function Attrs: nounwind uwtable
define internal ptr @find_option(ptr noundef %0, ptr noundef %1) #0 {
  %3 = alloca ptr, align 8
  %4 = alloca ptr, align 8
  %5 = alloca ptr, align 8
  %6 = alloca i32, align 4
  store ptr %0, ptr %3, align 8, !tbaa !21
  store ptr %1, ptr %4, align 8, !tbaa !10
  %7 = load ptr, ptr %4, align 8, !tbaa !10
  %8 = load i8, ptr %7, align 1, !tbaa !20
  %9 = sext i8 %8 to i32
  %10 = icmp eq i32 %9, 47
  br i1 %10, label %11, label %14

11:                                               ; preds = %2
  %12 = load ptr, ptr %4, align 8, !tbaa !10
  %13 = getelementptr inbounds nuw i8, ptr %12, i32 1
  store ptr %13, ptr %4, align 8, !tbaa !10
  br label %14

14:                                               ; preds = %11, %2
  br label %15

15:                                               ; preds = %42, %14
  %16 = load ptr, ptr %3, align 8, !tbaa !21
  %17 = getelementptr inbounds nuw %struct.OptionDef, ptr %16, i32 0, i32 0
  %18 = load ptr, ptr %17, align 8, !tbaa !23
  %19 = icmp ne ptr %18, null
  br i1 %19, label %20, label %43

20:                                               ; preds = %15
  call void @llvm.lifetime.start.p0(i64 8, ptr %5) #11
  %21 = load ptr, ptr %4, align 8, !tbaa !10
  %22 = load ptr, ptr %3, align 8, !tbaa !21
  %23 = getelementptr inbounds nuw %struct.OptionDef, ptr %22, i32 0, i32 0
  %24 = load ptr, ptr %23, align 8, !tbaa !23
  %25 = call i32 @av_strstart(ptr noundef %21, ptr noundef %24, ptr noundef %5)
  %26 = icmp ne i32 %25, 0
  br i1 %26, label %27, label %37

27:                                               ; preds = %20
  %28 = load ptr, ptr %5, align 8, !tbaa !10
  %29 = load i8, ptr %28, align 1, !tbaa !20
  %30 = icmp ne i8 %29, 0
  br i1 %30, label %31, label %36

31:                                               ; preds = %27
  %32 = load ptr, ptr %5, align 8, !tbaa !10
  %33 = load i8, ptr %32, align 1, !tbaa !20
  %34 = sext i8 %33 to i32
  %35 = icmp eq i32 %34, 58
  br i1 %35, label %36, label %37

36:                                               ; preds = %31, %27
  store i32 3, ptr %6, align 4
  br label %40

37:                                               ; preds = %31, %20
  %38 = load ptr, ptr %3, align 8, !tbaa !21
  %39 = getelementptr inbounds nuw %struct.OptionDef, ptr %38, i32 1
  store ptr %39, ptr %3, align 8, !tbaa !21
  store i32 0, ptr %6, align 4
  br label %40

40:                                               ; preds = %37, %36
  call void @llvm.lifetime.end.p0(i64 8, ptr %5) #11
  %41 = load i32, ptr %6, align 4
  switch i32 %41, label %45 [
    i32 0, label %42
    i32 3, label %43
  ]

42:                                               ; preds = %40
  br label %15, !llvm.loop !40

43:                                               ; preds = %40, %15
  %44 = load ptr, ptr %3, align 8, !tbaa !21
  ret ptr %44

45:                                               ; preds = %40
  unreachable
}

; Function Attrs: nounwind uwtable
define i32 @locate_option(i32 noundef %0, ptr noundef %1, ptr noundef %2, ptr noundef %3) #0 {
  %5 = alloca i32, align 4
  %6 = alloca i32, align 4
  %7 = alloca ptr, align 8
  %8 = alloca ptr, align 8
  %9 = alloca ptr, align 8
  %10 = alloca ptr, align 8
  %11 = alloca i32, align 4
  %12 = alloca ptr, align 8
  %13 = alloca i32, align 4
  store i32 %0, ptr %6, align 4, !tbaa !8
  store ptr %1, ptr %7, align 8, !tbaa !56
  store ptr %2, ptr %8, align 8, !tbaa !21
  store ptr %3, ptr %9, align 8, !tbaa !10
  call void @llvm.lifetime.start.p0(i64 8, ptr %10) #11
  call void @llvm.lifetime.start.p0(i64 4, ptr %11) #11
  store i32 1, ptr %11, align 4, !tbaa !8
  br label %14

14:                                               ; preds = %103, %4
  %15 = load i32, ptr %11, align 4, !tbaa !8
  %16 = load i32, ptr %6, align 4, !tbaa !8
  %17 = icmp slt i32 %15, %16
  br i1 %17, label %18, label %106

18:                                               ; preds = %14
  call void @llvm.lifetime.start.p0(i64 8, ptr %12) #11
  %19 = load ptr, ptr %7, align 8, !tbaa !56
  %20 = load i32, ptr %11, align 4, !tbaa !8
  %21 = sext i32 %20 to i64
  %22 = getelementptr inbounds ptr, ptr %19, i64 %21
  %23 = load ptr, ptr %22, align 8, !tbaa !10
  store ptr %23, ptr %12, align 8, !tbaa !10
  %24 = load ptr, ptr %12, align 8, !tbaa !10
  %25 = getelementptr inbounds i8, ptr %24, i64 0
  %26 = load i8, ptr %25, align 1, !tbaa !20
  %27 = sext i8 %26 to i32
  %28 = icmp eq i32 %27, 45
  br i1 %28, label %29, label %35

29:                                               ; preds = %18
  %30 = load ptr, ptr %12, align 8, !tbaa !10
  %31 = getelementptr inbounds i8, ptr %30, i64 1
  %32 = load i8, ptr %31, align 1, !tbaa !20
  %33 = sext i8 %32 to i32
  %34 = icmp ne i32 %33, 0
  br i1 %34, label %36, label %35

35:                                               ; preds = %29, %18
  store i32 4, ptr %13, align 4
  br label %100

36:                                               ; preds = %29
  %37 = load ptr, ptr %12, align 8, !tbaa !10
  %38 = getelementptr inbounds nuw i8, ptr %37, i32 1
  store ptr %38, ptr %12, align 8, !tbaa !10
  %39 = load ptr, ptr %8, align 8, !tbaa !21
  %40 = load ptr, ptr %12, align 8, !tbaa !10
  %41 = call ptr @find_option(ptr noundef %39, ptr noundef %40)
  store ptr %41, ptr %10, align 8, !tbaa !21
  %42 = load ptr, ptr %10, align 8, !tbaa !21
  %43 = getelementptr inbounds nuw %struct.OptionDef, ptr %42, i32 0, i32 0
  %44 = load ptr, ptr %43, align 8, !tbaa !23
  %45 = icmp ne ptr %44, null
  br i1 %45, label %63, label %46

46:                                               ; preds = %36
  %47 = load ptr, ptr %12, align 8, !tbaa !10
  %48 = getelementptr inbounds i8, ptr %47, i64 0
  %49 = load i8, ptr %48, align 1, !tbaa !20
  %50 = sext i8 %49 to i32
  %51 = icmp eq i32 %50, 110
  br i1 %51, label %52, label %63

52:                                               ; preds = %46
  %53 = load ptr, ptr %12, align 8, !tbaa !10
  %54 = getelementptr inbounds i8, ptr %53, i64 1
  %55 = load i8, ptr %54, align 1, !tbaa !20
  %56 = sext i8 %55 to i32
  %57 = icmp eq i32 %56, 111
  br i1 %57, label %58, label %63

58:                                               ; preds = %52
  %59 = load ptr, ptr %8, align 8, !tbaa !21
  %60 = load ptr, ptr %12, align 8, !tbaa !10
  %61 = getelementptr inbounds i8, ptr %60, i64 2
  %62 = call ptr @find_option(ptr noundef %59, ptr noundef %61)
  store ptr %62, ptr %10, align 8, !tbaa !21
  br label %63

63:                                               ; preds = %58, %52, %46, %36
  %64 = load ptr, ptr %10, align 8, !tbaa !21
  %65 = getelementptr inbounds nuw %struct.OptionDef, ptr %64, i32 0, i32 0
  %66 = load ptr, ptr %65, align 8, !tbaa !23
  %67 = icmp ne ptr %66, null
  br i1 %67, label %73, label %68

68:                                               ; preds = %63
  %69 = load ptr, ptr %12, align 8, !tbaa !10
  %70 = load ptr, ptr %9, align 8, !tbaa !10
  %71 = call i32 @strcmp(ptr noundef %69, ptr noundef %70) #12
  %72 = icmp ne i32 %71, 0
  br i1 %72, label %73, label %85

73:                                               ; preds = %68, %63
  %74 = load ptr, ptr %10, align 8, !tbaa !21
  %75 = getelementptr inbounds nuw %struct.OptionDef, ptr %74, i32 0, i32 0
  %76 = load ptr, ptr %75, align 8, !tbaa !23
  %77 = icmp ne ptr %76, null
  br i1 %77, label %78, label %87

78:                                               ; preds = %73
  %79 = load ptr, ptr %9, align 8, !tbaa !10
  %80 = load ptr, ptr %10, align 8, !tbaa !21
  %81 = getelementptr inbounds nuw %struct.OptionDef, ptr %80, i32 0, i32 0
  %82 = load ptr, ptr %81, align 8, !tbaa !23
  %83 = call i32 @strcmp(ptr noundef %79, ptr noundef %82) #12
  %84 = icmp ne i32 %83, 0
  br i1 %84, label %87, label %85

85:                                               ; preds = %78, %68
  %86 = load i32, ptr %11, align 4, !tbaa !8
  store i32 %86, ptr %5, align 4
  store i32 1, ptr %13, align 4
  br label %100

87:                                               ; preds = %78, %73
  %88 = load ptr, ptr %10, align 8, !tbaa !21
  %89 = getelementptr inbounds nuw %struct.OptionDef, ptr %88, i32 0, i32 0
  %90 = load ptr, ptr %89, align 8, !tbaa !23
  %91 = icmp ne ptr %90, null
  br i1 %91, label %92, label %96

92:                                               ; preds = %87
  %93 = load ptr, ptr %10, align 8, !tbaa !21
  %94 = call i32 @opt_has_arg(ptr noundef %93)
  %95 = icmp ne i32 %94, 0
  br i1 %95, label %96, label %99

96:                                               ; preds = %92, %87
  %97 = load i32, ptr %11, align 4, !tbaa !8
  %98 = add nsw i32 %97, 1
  store i32 %98, ptr %11, align 4, !tbaa !8
  br label %99

99:                                               ; preds = %96, %92
  store i32 0, ptr %13, align 4
  br label %100

100:                                              ; preds = %99, %85, %35
  call void @llvm.lifetime.end.p0(i64 8, ptr %12) #11
  %101 = load i32, ptr %13, align 4
  switch i32 %101, label %107 [
    i32 0, label %102
    i32 4, label %103
  ]

102:                                              ; preds = %100
  br label %103

103:                                              ; preds = %102, %100
  %104 = load i32, ptr %11, align 4, !tbaa !8
  %105 = add nsw i32 %104, 1
  store i32 %105, ptr %11, align 4, !tbaa !8
  br label %14, !llvm.loop !84

106:                                              ; preds = %14
  store i32 0, ptr %5, align 4
  store i32 1, ptr %13, align 4
  br label %107

107:                                              ; preds = %106, %100
  call void @llvm.lifetime.end.p0(i64 4, ptr %11) #11
  call void @llvm.lifetime.end.p0(i64 8, ptr %10) #11
  %108 = load i32, ptr %5, align 4
  ret i32 %108
}