; Function Attrs: nounwind uwtable
define i32 @locate_option(i32 noundef %0, ptr noundef readonly captures(none) %1, ptr noundef readonly captures(none) %2, ptr noundef readonly captures(none) %3) local_unnamed_addr #0 {
  %5 = alloca ptr, align 8
  %6 = alloca ptr, align 8
  %7 = icmp sgt i32 %0, 1
  br i1 %7, label %.lr.ph, label %.thread._crit_edge

.lr.ph:                                           ; preds = %4, %opt_has_arg.exit.thread
  %.02687 = phi i32 [ %56, %opt_has_arg.exit.thread ], [ 1, %4 ]
  %8 = sext i32 %.02687 to i64
  %9 = getelementptr inbounds ptr, ptr %1, i64 %8
  %10 = load ptr, ptr %9, align 8, !tbaa !9
  %11 = load i8, ptr %10, align 1, !tbaa !11
  %12 = icmp eq i8 %11, 45
  br i1 %12, label %13, label %opt_has_arg.exit.thread

13:                                               ; preds = %.lr.ph
  %14 = getelementptr inbounds nuw i8, ptr %10, i64 1
  %15 = load i8, ptr %14, align 1, !tbaa !11
  %.not = icmp eq i8 %15, 0
  br i1 %.not, label %opt_has_arg.exit.thread, label %16

16:                                               ; preds = %13
  %17 = icmp eq i8 %15, 47
  %spec.select.idx.i = zext i1 %17 to i64
  %spec.select.i = getelementptr inbounds nuw i8, ptr %14, i64 %spec.select.idx.i
  %18 = load ptr, ptr %2, align 8, !tbaa !14
  %.not17.i = icmp eq ptr %18, null
  br i1 %.not17.i, label %find_option.exit.thread, label %.lr.ph.i

.lr.ph.i:                                         ; preds = %16, %24
  %19 = phi ptr [ %26, %24 ], [ %18, %16 ]
  %.0818.i = phi ptr [ %25, %24 ], [ %2, %16 ]
  call void @llvm.lifetime.start.p0(i64 8, ptr nonnull %6) #15
  %20 = call i32 @av_strstart(ptr noundef nonnull %spec.select.i, ptr noundef nonnull %19, ptr noundef nonnull %6) #15
  %.not10.i = icmp eq i32 %20, 0
  br i1 %.not10.i, label %24, label %21

21:                                               ; preds = %.lr.ph.i
  %22 = load ptr, ptr %6, align 8, !tbaa !9
  %23 = load i8, ptr %22, align 1, !tbaa !11
  switch i8 %23, label %24 [
    i8 0, label %find_option.exit
    i8 58, label %find_option.exit
  ]

24:                                               ; preds = %21, %.lr.ph.i
  %25 = getelementptr inbounds nuw i8, ptr %.0818.i, i64 48
  call void @llvm.lifetime.end.p0(i64 8, ptr nonnull %6) #15
  %26 = load ptr, ptr %25, align 8, !tbaa !14
  %.not.i = icmp eq ptr %26, null
  br i1 %.not.i, label %find_option.exit.thread, label %.lr.ph.i

find_option.exit:                                 ; preds = %21, %21
  call void @llvm.lifetime.end.p0(i64 8, ptr nonnull %6) #15
  %.pr = load ptr, ptr %.0818.i, align 8, !tbaa !14
  %.not32 = icmp eq ptr %.pr, null
  br i1 %.not32, label %find_option.exit.thread, label %.thread

find_option.exit.thread:                          ; preds = %24, %16, %find_option.exit
  %27 = load i8, ptr %14, align 1, !tbaa !11
  %28 = icmp eq i8 %27, 110
  br i1 %28, label %29, label %find_option.exit48.thread

29:                                               ; preds = %find_option.exit.thread
  %30 = getelementptr inbounds nuw i8, ptr %10, i64 2
  %31 = load i8, ptr %30, align 1, !tbaa !11
  %32 = icmp eq i8 %31, 111
  br i1 %32, label %33, label %find_option.exit48.thread

33:                                               ; preds = %29
  %34 = getelementptr inbounds nuw i8, ptr %10, i64 3
  %35 = load i8, ptr %34, align 1, !tbaa !11
  %36 = icmp eq i8 %35, 47
  %spec.select.idx.i39 = zext i1 %36 to i64
  %spec.select.i40 = getelementptr inbounds nuw i8, ptr %34, i64 %spec.select.idx.i39
  %37 = load ptr, ptr %2, align 8, !tbaa !14
  %.not17.i41 = icmp eq ptr %37, null
  br i1 %.not17.i41, label %find_option.exit48.thread, label %.lr.ph.i42

.lr.ph.i42:                                       ; preds = %33, %43
  %38 = phi ptr [ %45, %43 ], [ %37, %33 ]
  %.0818.i43 = phi ptr [ %44, %43 ], [ %2, %33 ]
  call void @llvm.lifetime.start.p0(i64 8, ptr nonnull %5) #15
  %39 = call i32 @av_strstart(ptr noundef nonnull %spec.select.i40, ptr noundef nonnull %38, ptr noundef nonnull %5) #15
  %.not10.i44 = icmp eq i32 %39, 0
  br i1 %.not10.i44, label %43, label %40

40:                                               ; preds = %.lr.ph.i42
  %41 = load ptr, ptr %5, align 8, !tbaa !9
  %42 = load i8, ptr %41, align 1, !tbaa !11
  switch i8 %42, label %43 [
    i8 0, label %find_option.exit48
    i8 58, label %find_option.exit48
  ]

43:                                               ; preds = %40, %.lr.ph.i42
  %44 = getelementptr inbounds nuw i8, ptr %.0818.i43, i64 48
  call void @llvm.lifetime.end.p0(i64 8, ptr nonnull %5) #15
  %45 = load ptr, ptr %44, align 8, !tbaa !14
  %.not.i47 = icmp eq ptr %45, null
  br i1 %.not.i47, label %find_option.exit48.thread, label %.lr.ph.i42

find_option.exit48:                               ; preds = %40, %40
  call void @llvm.lifetime.end.p0(i64 8, ptr nonnull %5) #15
  %.pr52.pre = load ptr, ptr %.0818.i43, align 8, !tbaa !14
  %.not33 = icmp eq ptr %.pr52.pre, null
  br i1 %.not33, label %find_option.exit48.thread, label %.thread

find_option.exit48.thread:                        ; preds = %43, %29, %find_option.exit.thread, %33, %find_option.exit48
  %46 = call i32 @strcmp(ptr noundef nonnull dereferenceable(1) %14, ptr noundef nonnull dereferenceable(1) %3) #16
  %.not34 = icmp eq i32 %46, 0
  br i1 %.not34, label %.thread._crit_edge, label %.thread70

.thread:                                          ; preds = %find_option.exit, %find_option.exit48
  %47 = phi ptr [ %.pr52.pre, %find_option.exit48 ], [ %.pr, %find_option.exit ]
  %.0275668 = phi ptr [ %.0818.i43, %find_option.exit48 ], [ %.0818.i, %find_option.exit ]
  %48 = call i32 @strcmp(ptr noundef nonnull dereferenceable(1) %3, ptr noundef nonnull dereferenceable(1) %47) #16
  %.not36 = icmp eq i32 %48, 0
  br i1 %.not36, label %.thread._crit_edge, label %49

49:                                               ; preds = %.thread
  %50 = getelementptr inbounds nuw i8, ptr %.0275668, i64 8
  %51 = load i32, ptr %50, align 8, !tbaa !29
  switch i32 %51, label %.thread70 [
    i32 1, label %opt_has_arg.exit.thread
    i32 0, label %opt_has_arg.exit
  ]

opt_has_arg.exit:                                 ; preds = %49
  %52 = getelementptr inbounds nuw i8, ptr %.0275668, i64 12
  %53 = load i32, ptr %52, align 4, !tbaa !17
  %54 = and i32 %53, 1
  %.not38 = icmp eq i32 %54, 0
  br i1 %.not38, label %opt_has_arg.exit.thread, label %.thread70

.thread70:                                        ; preds = %find_option.exit48.thread, %49, %opt_has_arg.exit
  %55 = add nsw i32 %.02687, 1
  br label %opt_has_arg.exit.thread

opt_has_arg.exit.thread:                          ; preds = %49, %13, %.lr.ph, %.thread70, %opt_has_arg.exit
  %.1.ph = phi i32 [ %.02687, %opt_has_arg.exit ], [ %55, %.thread70 ], [ %.02687, %.lr.ph ], [ %.02687, %13 ], [ %.02687, %49 ]
  %56 = add nsw i32 %.1.ph, 1
  %57 = icmp slt i32 %56, %0
  br i1 %57, label %.lr.ph, label %.thread._crit_edge, !llvm.loop !65

.thread._crit_edge:                               ; preds = %opt_has_arg.exit.thread, %find_option.exit48.thread, %.thread, %4
  %.230 = phi i32 [ 0, %4 ], [ %.02687, %.thread ], [ %.02687, %find_option.exit48.thread ], [ 0, %opt_has_arg.exit.thread ]
  ret i32 %.230
}